target datalayout = "e-m:e-p270:32:32-p271:32:32-p272:64:64-i64:64-i128:128-f80:128-n8:16:32:64-S128"
target triple = "x86_64-pc-linux-gnu"

%"struct.std::_Vector_base" = type { %"struct.std::_Vector_base<std::__cxx11::basic_string<char>, std::allocator<std::__cxx11::basic_string<char>>>::_Vector_impl" }
%"struct.std::_Vector_base<std::__cxx11::basic_string<char>, std::allocator<std::__cxx11::basic_string<char>>>::_Vector_impl" = type { %"struct.std::_Vector_base<std::__cxx11::basic_string<char>, std::allocator<std::__cxx11::basic_string<char>>>::_Vector_impl_data" }
%"struct.std::_Vector_base<std::__cxx11::basic_string<char>, std::allocator<std::__cxx11::basic_string<char>>>::_Vector_impl_data" = type { ptr, ptr, ptr }
%"class.std::vector.10" = type { %"struct.std::_Vector_base.11" }
%"struct.std::_Vector_base.11" = type { %"struct.std::_Vector_base<vcpkg::Path, std::allocator<vcpkg::Path>>::_Vector_impl" }
%"struct.std::_Vector_base<vcpkg::Path, std::allocator<vcpkg::Path>>::_Vector_impl" = type { %"struct.std::_Vector_base<vcpkg::Path, std::allocator<vcpkg::Path>>::_Vector_impl_data" }
%"struct.std::_Vector_base<vcpkg::Path, std::allocator<vcpkg::Path>>::_Vector_impl_data" = type { ptr, ptr, ptr }

; Function Attrs: mustprogress nounwind uwtable
define linkonce_odr dso_local void @_ZNSt15__new_allocatorIN5vcpkg4PathEEC2Ev(ptr noundef nonnull align 1 dereferenceable(1) %0) unnamed_addr #5 comdat align 2 {
  %2 = alloca ptr, align 8
  store ptr %0, ptr %2, align 8, !tbaa !610
  ret void
}

; Function Attrs: mustprogress nounwind uwtable
define linkonce_odr dso_local void @_ZNSt12_Vector_baseIN5vcpkg4PathESaIS1_EE17_Vector_impl_dataC2Ev(ptr noundef nonnull align 8 dereferenceable(24) %0) unnamed_addr #5 comdat align 2 {
  %2 = alloca ptr, align 8
  store ptr %0, ptr %2, align 8, !tbaa !1296
  %3 = load ptr, ptr %2, align 8
  %4 = getelementptr inbounds nuw %"struct.std::_Vector_base<vcpkg::Path, std::allocator<vcpkg::Path>>::_Vector_impl_data", ptr %3, i32 0, i32 0
  store ptr null, ptr %4, align 8, !tbaa !158
  %5 = getelementptr inbounds nuw %"struct.std::_Vector_base<vcpkg::Path, std::allocator<vcpkg::Path>>::_Vector_impl_data", ptr %3, i32 0, i32 1
  store ptr null, ptr %5, align 8, !tbaa !159
  %6 = getelementptr inbounds nuw %"struct.std::_Vector_base<vcpkg::Path, std::allocator<vcpkg::Path>>::_Vector_impl_data", ptr %3, i32 0, i32 2
  store ptr null, ptr %6, align 8, !tbaa !164
  ret void
}

; Function Attrs: mustprogress nounwind uwtable
define linkonce_odr dso_local void @_ZNSaIN5vcpkg4PathEEC2Ev(ptr noundef nonnull align 1 dereferenceable(1) %0) unnamed_addr #5 comdat align 2 {
  %2 = alloca ptr, align 8
  store ptr %0, ptr %2, align 8, !tbaa !608
  %3 = load ptr, ptr %2, align 8
  call void @_ZNSt15__new_allocatorIN5vcpkg4PathEEC2Ev(ptr noundef nonnull align 1 dereferenceable(1) %3) #12
  ret void
}

; Function Attrs: mustprogress nounwind uwtable
define linkonce_odr dso_local void @_ZNSt12_Vector_baseIN5vcpkg4PathESaIS1_EE12_Vector_implC2Ev(ptr noundef nonnull align 8 dereferenceable(24) %0) unnamed_addr #5 comdat align 2 {
  %2 = alloca ptr, align 8
  store ptr %0, ptr %2, align 8, !tbaa !606
  %3 = load ptr, ptr %2, align 8
  call void @_ZNSaIN5vcpkg4PathEEC2Ev(ptr noundef nonnull align 1 dereferenceable(1) %3) #12
  call void @_ZNSt12_Vector_baseIN5vcpkg4PathESaIS1_EE17_Vector_impl_dataC2Ev(ptr noundef nonnull align 8 dereferenceable(24) %3) #12
  ret void
}

; Function Attrs: mustprogress nounwind uwtable
define linkonce_odr dso_local void @_ZNSt12_Vector_baseIN5vcpkg4PathESaIS1_EEC2Ev(ptr noundef nonnull align 8 dereferenceable(24) %0) unnamed_addr #5 comdat align 2 {
  %2 = alloca ptr, align 8
  store ptr %0, ptr %2, align 8, !tbaa !604
  %3 = load ptr, ptr %2, align 8
  %4 = getelementptr inbounds nuw %"struct.std::_Vector_base.11", ptr %3, i32 0, i32 0
  call void @_ZNSt12_Vector_baseIN5vcpkg4PathESaIS1_EE12_Vector_implC2Ev(ptr noundef nonnull align 8 dereferenceable(24) %4) #12
  ret void
}

; Function Attrs: mustprogress nounwind uwtable
define linkonce_odr dso_local noundef i64 @_ZNKSt6vectorINSt7__cxx1112basic_stringIcSt11char_traitsIcESaIcEEESaIS5_EE4sizeEv(ptr noundef nonnull align 8 dereferenceable(24) %0) #5 comdat align 2 {
  %2 = alloca ptr, align 8
  store ptr %0, ptr %2, align 8, !tbaa !156
  %3 = load ptr, ptr %2, align 8
  %4 = getelementptr inbounds nuw %"struct.std::_Vector_base", ptr %3, i32 0, i32 0
  %5 = getelementptr inbounds nuw %"struct.std::_Vector_base<std::__cxx11::basic_string<char>, std::allocator<std::__cxx11::basic_string<char>>>::_Vector_impl_data", ptr %4, i32 0, i32 1
  %6 = load ptr, ptr %5, align 8, !tbaa !288
  %7 = getelementptr inbounds nuw %"struct.std::_Vector_base", ptr %3, i32 0, i32 0
  %8 = getelementptr inbounds nuw %"struct.std::_Vector_base<std::__cxx11::basic_string<char>, std::allocator<std::__cxx11::basic_string<char>>>::_Vector_impl_data", ptr %7, i32 0, i32 0
  %9 = load ptr, ptr %8, align 8, !tbaa !289
  %10 = ptrtoint ptr %6 to i64
  %11 = ptrtoint ptr %9 to i64
  %12 = sub i64 %10, %11
  %13 = sdiv exact i64 %12, 32
  ret i64 %13
}

; Function Attrs: mustprogress nounwind uwtable
define linkonce_odr dso_local void @_ZNSt6vectorIN5vcpkg4PathESaIS1_EEC2Ev(ptr noundef nonnull align 8 dereferenceable(24) %0) unnamed_addr #5 comdat align 2 {
  %2 = alloca ptr, align 8
  store ptr %0, ptr %2, align 8, !tbaa !101
  %3 = load ptr, ptr %2, align 8
  call void @_ZNSt12_Vector_baseIN5vcpkg4PathESaIS1_EEC2Ev(ptr noundef nonnull align 8 dereferenceable(24) %3) #12
  ret void
}

; Function Attrs: mustprogress uwtable
define internal void @_ZN12_GLOBAL__N_114merge_overlaysERKN5vcpkg18ReadOnlyFilesystemERKSt6vectorINSt7__cxx1112basic_stringIcSt11char_traitsIcESaIcEEESaISA_EESE_RKNS0_4PathEbSE_SH_(ptr dead_on_unwind noalias writable sret(%"class.std::vector.10") align 8 %0, ptr noundef nonnull align 8 dereferenceable(8) %1, ptr noundef nonnull align 8 dereferenceable(24) %2, ptr noundef nonnull align 8 dereferenceable(24) %3, ptr noundef nonnull align 8 dereferenceable(32) %4, i1 noundef zeroext %5, ptr noundef nonnull align 8 dereferenceable(24) %6, ptr noundef nonnull align 8 dereferenceable(32) %7) #0 personality ptr @__gxx_personality_v0 {
  %9 = alloca ptr, align 8
  %10 = alloca ptr, align 8
  %11 = alloca ptr, align 8
  %12 = alloca ptr, align 8
  %13 = alloca ptr, align 8
  %14 = alloca i8, align 1
  %15 = alloca ptr, align 8
  %16 = alloca ptr, align 8
  %17 = alloca i1, align 1
  %18 = alloca ptr, align 8
  %19 = alloca i32, align 4
  store ptr %0, ptr %9, align 8
  store ptr %1, ptr %10, align 8, !tbaa !103
  store ptr %2, ptr %11, align 8, !tbaa !156
  store ptr %3, ptr %12, align 8, !tbaa !156
  store ptr %4, ptr %13, align 8, !tbaa !18
  %20 = zext i1 %5 to i8
  store i8 %20, ptr %14, align 1, !tbaa !153
  store ptr %6, ptr %15, align 8, !tbaa !156
  store ptr %7, ptr %16, align 8, !tbaa !18
  store i1 false, ptr %17, align 1
  call void @_ZNSt6vectorIN5vcpkg4PathESaIS1_EEC2Ev(ptr noundef nonnull align 8 dereferenceable(24) %0) #12
  %21 = load ptr, ptr %11, align 8, !tbaa !156
  %22 = call noundef i64 @_ZNKSt6vectorINSt7__cxx1112basic_stringIcSt11char_traitsIcESaIcEEESaIS5_EE4sizeEv(ptr noundef nonnull align 8 dereferenceable(24) %21) #12
  %23 = load ptr, ptr %15, align 8, !tbaa !156
  %24 = call noundef i64 @_ZNKSt6vectorINSt7__cxx1112basic_stringIcSt11char_traitsIcESaIcEEESaIS5_EE4sizeEv(ptr noundef nonnull align 8 dereferenceable(24) %23) #12
  %25 = add i64 %22, %24
  %26 = load ptr, ptr %12, align 8, !tbaa !156
  %27 = call noundef i64 @_ZNKSt6vectorINSt7__cxx1112basic_stringIcSt11char_traitsIcESaIcEEESaIS5_EE4sizeEv(ptr noundef nonnull align 8 dereferenceable(24) %26) #12
  %28 = add i64 %25, %27
  invoke void @_ZNSt6vectorIN5vcpkg4PathESaIS1_EE7reserveEm(ptr noundef nonnull align 8 dereferenceable(24) %0, i64 noundef %28)
          to label %29 unwind label %48

29:                                               ; preds = %8
  %30 = load ptr, ptr %10, align 8, !tbaa !103
  %31 = load ptr, ptr %11, align 8, !tbaa !156
  %32 = load ptr, ptr %13, align 8, !tbaa !18
  %33 = load ptr, ptr %16, align 8, !tbaa !18
  invoke void @_ZN12_GLOBAL__N_115append_overlaysERSt6vectorIN5vcpkg4PathESaIS2_EERKNS1_18ReadOnlyFilesystemERKS0_INSt7__cxx1112basic_stringIcSt11char_traitsIcESaIcEEESaISE_EERKS2_SK_b(ptr noundef nonnull align 8 dereferenceable(24) %0, ptr noundef nonnull align 8 dereferenceable(8) %30, ptr noundef nonnull align 8 dereferenceable(24) %31, ptr noundef nonnull align 8 dereferenceable(32) %32, ptr noundef nonnull align 8 dereferenceable(32) %33, i1 noundef zeroext false)
          to label %34 unwind label %48

34:                                               ; preds = %29
  %35 = load ptr, ptr %10, align 8, !tbaa !103
  %36 = load ptr, ptr %15, align 8, !tbaa !156
  %37 = load ptr, ptr %16, align 8, !tbaa !18
  %38 = load ptr, ptr %16, align 8, !tbaa !18
  %39 = load i8, ptr %14, align 1, !tbaa !153, !range !111, !noundef !112
  %40 = trunc i8 %39 to i1
  invoke void @_ZN12_GLOBAL__N_115append_overlaysERSt6vectorIN5vcpkg4PathESaIS2_EERKNS1_18ReadOnlyFilesystemERKS0_INSt7__cxx1112basic_stringIcSt11char_traitsIcESaIcEEESaISE_EERKS2_SK_b(ptr noundef nonnull align 8 dereferenceable(24) %0, ptr noundef nonnull align 8 dereferenceable(8) %35, ptr noundef nonnull align 8 dereferenceable(24) %36, ptr noundef nonnull align 8 dereferenceable(32) %37, ptr noundef nonnull align 8 dereferenceable(32) %38, i1 noundef zeroext %40)
          to label %41 unwind label %48

41:                                               ; preds = %34
  %42 = load ptr, ptr %10, align 8, !tbaa !103
  %43 = load ptr, ptr %12, align 8, !tbaa !156
  %44 = load ptr, ptr %13, align 8, !tbaa !18
  %45 = load ptr, ptr %16, align 8, !tbaa !18
  invoke void @_ZN12_GLOBAL__N_115append_overlaysERSt6vectorIN5vcpkg4PathESaIS2_EERKNS1_18ReadOnlyFilesystemERKS0_INSt7__cxx1112basic_stringIcSt11char_traitsIcESaIcEEESaISE_EERKS2_SK_b(ptr noundef nonnull align 8 dereferenceable(24) %0, ptr noundef nonnull align 8 dereferenceable(8) %42, ptr noundef nonnull align 8 dereferenceable(24) %43, ptr noundef nonnull align 8 dereferenceable(32) %44, ptr noundef nonnull align 8 dereferenceable(32) %45, i1 noundef zeroext false)
          to label %46 unwind label %48

46:                                               ; preds = %41
  store i1 true, ptr %17, align 1
  %47 = load i1, ptr %17, align 1
  br i1 %47, label %53, label %52

48:                                               ; preds = %41, %34, %29, %8
  %49 = landingpad { ptr, i32 }
          cleanup
  %50 = extractvalue { ptr, i32 } %49, 0
  store ptr %50, ptr %18, align 8
  %51 = extractvalue { ptr, i32 } %49, 1
  store i32 %51, ptr %19, align 4
  call void @_ZNSt6vectorIN5vcpkg4PathESaIS1_EED2Ev(ptr noundef nonnull align 8 dereferenceable(24) %0) #12
  br label %54

52:                                               ; preds = %46
  call void @_ZNSt6vectorIN5vcpkg4PathESaIS1_EED2Ev(ptr noundef nonnull align 8 dereferenceable(24) %0) #12
  br label %53

53:                                               ; preds = %52, %46
  ret void

54:                                               ; preds = %48
  %55 = load ptr, ptr %18, align 8
  %56 = load i32, ptr %19, align 4
  %57 = insertvalue { ptr, i32 } poison, ptr %55, 0
  %58 = insertvalue { ptr, i32 } %57, i32 %56, 1
  resume { ptr, i32 } %58
}