; Function Attrs: mustprogress uwtable
define internal fastcc void @_ZN12_GLOBAL__N_114merge_overlaysERKN5vcpkg18ReadOnlyFilesystemERKSt6vectorINSt7__cxx1112basic_stringIcSt11char_traitsIcESaIcEEESaISA_EESE_RKNS0_4PathEbSE_SH_(ptr dead_on_unwind noalias nonnull writable align 8 initializes((0, 24)) %0, ptr noundef nonnull align 8 dereferenceable(8) %1, ptr noundef nonnull readonly align 8 captures(none) dereferenceable(24) %2, ptr noundef nonnull readonly align 8 captures(none) dereferenceable(24) %3, ptr noundef nonnull align 8 dereferenceable(32) %4, i1 noundef zeroext %5, ptr noundef nonnull readonly align 8 captures(none) dereferenceable(24) %6, ptr noundef nonnull align 8 dereferenceable(32) %7) unnamed_addr #0 personality ptr @__gxx_personality_v0 {
  tail call void @llvm.memset.p0.i64(ptr noundef nonnull align 8 dereferenceable(24) %0, i8 0, i64 24, i1 false)
  %9 = getelementptr inbounds nuw i8, ptr %2, i64 8
  %10 = load ptr, ptr %9, align 8, !tbaa !117
  %11 = load ptr, ptr %2, align 8, !tbaa !116
  %12 = ptrtoint ptr %10 to i64
  %13 = ptrtoint ptr %11 to i64
  %14 = sub i64 %12, %13
  %15 = ashr exact i64 %14, 5
  %16 = getelementptr inbounds nuw i8, ptr %6, i64 8
  %17 = load ptr, ptr %16, align 8, !tbaa !117
  %18 = load ptr, ptr %6, align 8, !tbaa !116
  %19 = ptrtoint ptr %17 to i64
  %20 = ptrtoint ptr %18 to i64
  %21 = sub i64 %19, %20
  %22 = ashr exact i64 %21, 5
  %23 = add nsw i64 %22, %15
  %24 = getelementptr inbounds nuw i8, ptr %3, i64 8
  %25 = load ptr, ptr %24, align 8, !tbaa !117
  %26 = load ptr, ptr %3, align 8, !tbaa !116
  %27 = ptrtoint ptr %25 to i64
  %28 = ptrtoint ptr %26 to i64
  %29 = sub i64 %27, %28
  %30 = ashr exact i64 %29, 5
  %31 = add nsw i64 %23, %30
  invoke void @_ZNSt6vectorIN5vcpkg4PathESaIS1_EE7reserveEm(ptr noundef nonnull align 8 dereferenceable(24) %0, i64 noundef %31)
          to label %32 unwind label %35

32:                                               ; preds = %8
  %.val = load ptr, ptr %2, align 8, !tbaa !186
  %.val18 = load ptr, ptr %9, align 8, !tbaa !186
  invoke fastcc void @_ZN12_GLOBAL__N_115append_overlaysERSt6vectorIN5vcpkg4PathESaIS2_EERKNS1_18ReadOnlyFilesystemERKS0_INSt7__cxx1112basic_stringIcSt11char_traitsIcESaIcEEESaISE_EERKS2_SK_b(ptr noundef nonnull align 8 dereferenceable(24) %0, ptr noundef nonnull align 8 dereferenceable(8) %1, ptr %.val, ptr %.val18, ptr noundef nonnull align 8 dereferenceable(32) %4, ptr noundef nonnull align 8 dereferenceable(32) %7, i1 noundef zeroext false)
          to label %33 unwind label %35

33:                                               ; preds = %32
  %.val19 = load ptr, ptr %6, align 8, !tbaa !186
  %.val20 = load ptr, ptr %16, align 8, !tbaa !186
  invoke fastcc void @_ZN12_GLOBAL__N_115append_overlaysERSt6vectorIN5vcpkg4PathESaIS2_EERKNS1_18ReadOnlyFilesystemERKS0_INSt7__cxx1112basic_stringIcSt11char_traitsIcESaIcEEESaISE_EERKS2_SK_b(ptr noundef nonnull align 8 dereferenceable(24) %0, ptr noundef nonnull align 8 dereferenceable(8) %1, ptr %.val19, ptr %.val20, ptr noundef nonnull align 8 dereferenceable(32) %7, ptr noundef nonnull align 8 dereferenceable(32) %7, i1 noundef zeroext %5)
          to label %34 unwind label %35

34:                                               ; preds = %33
  %.val21 = load ptr, ptr %3, align 8, !tbaa !186
  %.val22 = load ptr, ptr %24, align 8, !tbaa !186
  invoke fastcc void @_ZN12_GLOBAL__N_115append_overlaysERSt6vectorIN5vcpkg4PathESaIS2_EERKNS1_18ReadOnlyFilesystemERKS0_INSt7__cxx1112basic_stringIcSt11char_traitsIcESaIcEEESaISE_EERKS2_SK_b(ptr noundef nonnull align 8 dereferenceable(24) %0, ptr noundef nonnull align 8 dereferenceable(8) %1, ptr %.val21, ptr %.val22, ptr noundef nonnull align 8 dereferenceable(32) %4, ptr noundef nonnull align 8 dereferenceable(32) %7, i1 noundef zeroext false)
          to label %37 unwind label %35

35:                                               ; preds = %34, %33, %32, %8
  %36 = landingpad { ptr, i32 }
          cleanup
  tail call void @_ZNSt6vectorIN5vcpkg4PathESaIS1_EED2Ev(ptr noundef nonnull align 8 dereferenceable(24) %0) #28
  resume { ptr, i32 } %36

37:                                               ; preds = %34
  ret void
}